; Function Attrs: mustprogress uwtable
define noundef double @_ZNK8QuantLib16GFunctionFactory19GFunctionWithShifts12shapeOfShiftEd(ptr noundef nonnull align 8 dereferenceable(176) %this, double noundef %s) local_unnamed_addr #7 align 2 {
entry:
  %swapStartTime_ = getelementptr inbounds nuw i8, ptr %this, i64 8
  %0 = load double, ptr %swapStartTime_, align 8, !tbaa !249
  %sub = fsub double %s, %0
  %meanReversion_ = getelementptr inbounds nuw i8, ptr %this, i64 120
  %call = tail call noundef nonnull align 8 dereferenceable(16) ptr @_ZNK8QuantLib6HandleINS_5QuoteEEptEv(ptr noundef nonnull align 8 dereferenceable(16) %meanReversion_)
  %1 = load ptr, ptr %call, align 8, !tbaa !118
  %cmp.not.i = icmp eq ptr %1, null
  br i1 %cmp.not.i, label %cond.false.i, label %_ZNK5boost10shared_ptrIN8QuantLib5QuoteEEptEv.exit, !prof !53

cond.false.i:                                     ; preds = %entry
  tail call void @_ZN5boost16assertion_failedEPKcS1_S1_l(ptr noundef nonnull @.str.25, ptr noundef nonnull @__PRETTY_FUNCTION__._ZNK5boost10shared_ptrIN8QuantLib5QuoteEEptEv, ptr noundef nonnull @.str.26, i64 noundef 784)
  %.pre.i = load ptr, ptr %call, align 8, !tbaa !118
  br label %_ZNK5boost10shared_ptrIN8QuantLib5QuoteEEptEv.exit

_ZNK5boost10shared_ptrIN8QuantLib5QuoteEEptEv.exit: ; preds = %entry, %cond.false.i
  %2 = phi ptr [ %1, %entry ], [ %.pre.i, %cond.false.i ]
  %vtable = load ptr, ptr %2, align 8, !tbaa !35
  %vfn = getelementptr inbounds i8, ptr %vtable, i64 16
  %3 = load ptr, ptr %vfn, align 8
  %call3 = tail call noundef double %3(ptr noundef nonnull align 8 dereferenceable(8) %2)
  %cmp = fcmp ogt double %call3, 0.000000e+00
  br i1 %cmp, label %if.then, label %cleanup

if.then:                                          ; preds = %_ZNK5boost10shared_ptrIN8QuantLib5QuoteEEptEv.exit
  %fneg = fneg double %call3
  %mul = fmul double %sub, %fneg
  %call4 = tail call double @exp(double noundef %mul) #35, !tbaa !58
  %sub5 = fsub double 1.000000e+00, %call4
  %div = fdiv double %sub5, %call3
  br label %cleanup

cleanup:                                          ; preds = %_ZNK5boost10shared_ptrIN8QuantLib5QuoteEEptEv.exit, %if.then
  %retval.0 = phi double [ %div, %if.then ], [ %sub, %_ZNK5boost10shared_ptrIN8QuantLib5QuoteEEptEv.exit ]
  ret double %retval.0
}